target datalayout = "e-m:e-p270:32:32-p271:32:32-p272:64:64-i64:64-i128:128-f80:128-n8:16:32:64-S128"
target triple = "x86_64-pc-linux-gnu"

%struct._cms_typehandler_struct = type { i32, ptr, ptr, ptr, ptr, ptr, i32 }
%struct._cms_io_handler = type { ptr, ptr, i32, i32, [256 x i8], ptr, ptr, ptr, ptr, ptr }
%struct._cms_curve_struct = type { ptr, i32, ptr, ptr, ptr, i32, ptr }
%struct.cmsUcrBg = type { ptr, ptr, ptr }

@.str = private unnamed_addr constant [3 x i8] zeroinitializer, align 1

; Function Attrs: nounwind uwtable
define internal ptr @Type_UcrBg_Read(ptr noundef %0, ptr noundef %1, ptr noundef %2, i32 noundef %3) #0 {
  %5 = alloca ptr, align 8
  %6 = alloca ptr, align 8
  %7 = alloca ptr, align 8
  %8 = alloca ptr, align 8
  %9 = alloca i32, align 4
  %10 = alloca ptr, align 8
  %11 = alloca i32, align 4
  %12 = alloca i32, align 4
  %13 = alloca i32, align 4
  %14 = alloca ptr, align 8
  store ptr %0, ptr %6, align 8
  store ptr %1, ptr %7, align 8
  store ptr %2, ptr %8, align 8
  store i32 %3, ptr %9, align 4
  %15 = load ptr, ptr %6, align 8
  %16 = getelementptr inbounds %struct._cms_typehandler_struct, ptr %15, i32 0, i32 5
  %17 = load ptr, ptr %16, align 8
  %18 = call ptr @_cmsMallocZero(ptr noundef %17, i32 noundef 24)
  store ptr %18, ptr %10, align 8
  %19 = load i32, ptr %9, align 4
  store i32 %19, ptr %13, align 4
  %20 = load ptr, ptr %8, align 8
  store i32 0, ptr %20, align 4
  %21 = load ptr, ptr %10, align 8
  %22 = icmp eq ptr %21, null
  br i1 %22, label %23, label %24

23:                                               ; preds = %4
  store ptr null, ptr %5, align 8
  br label %217

24:                                               ; preds = %4
  %25 = load i32, ptr %13, align 4
  %26 = icmp slt i32 %25, 4
  br i1 %26, label %27, label %28

27:                                               ; preds = %24
  store ptr null, ptr %5, align 8
  br label %217

28:                                               ; preds = %24
  %29 = load ptr, ptr %7, align 8
  %30 = call i32 @_cmsReadUInt32Number(ptr noundef %29, ptr noundef %11)
  %31 = icmp ne i32 %30, 0
  br i1 %31, label %33, label %32

32:                                               ; preds = %28
  store ptr null, ptr %5, align 8
  br label %217

33:                                               ; preds = %28
  %34 = load i32, ptr %13, align 4
  %35 = sext i32 %34 to i64
  %36 = sub i64 %35, 4
  %37 = trunc i64 %36 to i32
  store i32 %37, ptr %13, align 4
  %38 = load ptr, ptr %6, align 8
  %39 = getelementptr inbounds %struct._cms_typehandler_struct, ptr %38, i32 0, i32 5
  %40 = load ptr, ptr %39, align 8
  %41 = load i32, ptr %11, align 4
  %42 = call ptr @cmsBuildTabulatedToneCurve16(ptr noundef %40, i32 noundef %41, ptr noundef null)
  %43 = load ptr, ptr %10, align 8
  %44 = getelementptr inbounds %struct.cmsUcrBg, ptr %43, i32 0, i32 0
  store ptr %42, ptr %44, align 8
  %45 = load ptr, ptr %10, align 8
  %46 = getelementptr inbounds %struct.cmsUcrBg, ptr %45, i32 0, i32 0
  %47 = load ptr, ptr %46, align 8
  %48 = icmp eq ptr %47, null
  br i1 %48, label %49, label %50

49:                                               ; preds = %33
  br label %184

50:                                               ; preds = %33
  %51 = load i32, ptr %13, align 4
  %52 = load i32, ptr %11, align 4
  %53 = zext i32 %52 to i64
  %54 = mul i64 %53, 2
  %55 = trunc i64 %54 to i32
  %56 = icmp slt i32 %51, %55
  br i1 %56, label %57, label %58

57:                                               ; preds = %50
  br label %184

58:                                               ; preds = %50
  %59 = load ptr, ptr %7, align 8
  %60 = load i32, ptr %11, align 4
  %61 = load ptr, ptr %10, align 8
  %62 = getelementptr inbounds %struct.cmsUcrBg, ptr %61, i32 0, i32 0
  %63 = load ptr, ptr %62, align 8
  %64 = getelementptr inbounds %struct._cms_curve_struct, ptr %63, i32 0, i32 6
  %65 = load ptr, ptr %64, align 8
  %66 = call i32 @_cmsReadUInt16Array(ptr noundef %59, i32 noundef %60, ptr noundef %65)
  %67 = icmp ne i32 %66, 0
  br i1 %67, label %69, label %68

68:                                               ; preds = %58
  br label %184

69:                                               ; preds = %58
  %70 = load i32, ptr %11, align 4
  %71 = zext i32 %70 to i64
  %72 = mul i64 %71, 2
  %73 = load i32, ptr %13, align 4
  %74 = sext i32 %73 to i64
  %75 = sub i64 %74, %72
  %76 = trunc i64 %75 to i32
  store i32 %76, ptr %13, align 4
  %77 = load i32, ptr %13, align 4
  %78 = icmp slt i32 %77, 4
  br i1 %78, label %79, label %80

79:                                               ; preds = %69
  br label %184

80:                                               ; preds = %69
  %81 = load ptr, ptr %7, align 8
  %82 = call i32 @_cmsReadUInt32Number(ptr noundef %81, ptr noundef %12)
  %83 = icmp ne i32 %82, 0
  br i1 %83, label %85, label %84

84:                                               ; preds = %80
  br label %184

85:                                               ; preds = %80
  %86 = load i32, ptr %13, align 4
  %87 = sext i32 %86 to i64
  %88 = sub i64 %87, 4
  %89 = trunc i64 %88 to i32
  store i32 %89, ptr %13, align 4
  %90 = load ptr, ptr %6, align 8
  %91 = getelementptr inbounds %struct._cms_typehandler_struct, ptr %90, i32 0, i32 5
  %92 = load ptr, ptr %91, align 8
  %93 = load i32, ptr %12, align 4
  %94 = call ptr @cmsBuildTabulatedToneCurve16(ptr noundef %92, i32 noundef %93, ptr noundef null)
  %95 = load ptr, ptr %10, align 8
  %96 = getelementptr inbounds %struct.cmsUcrBg, ptr %95, i32 0, i32 1
  store ptr %94, ptr %96, align 8
  %97 = load ptr, ptr %10, align 8
  %98 = getelementptr inbounds %struct.cmsUcrBg, ptr %97, i32 0, i32 1
  %99 = load ptr, ptr %98, align 8
  %100 = icmp eq ptr %99, null
  br i1 %100, label %101, label %102

101:                                              ; preds = %85
  br label %184

102:                                              ; preds = %85
  %103 = load i32, ptr %13, align 4
  %104 = load i32, ptr %12, align 4
  %105 = zext i32 %104 to i64
  %106 = mul i64 %105, 2
  %107 = trunc i64 %106 to i32
  %108 = icmp slt i32 %103, %107
  br i1 %108, label %109, label %110

109:                                              ; preds = %102
  br label %184

110:                                              ; preds = %102
  %111 = load ptr, ptr %7, align 8
  %112 = load i32, ptr %12, align 4
  %113 = load ptr, ptr %10, align 8
  %114 = getelementptr inbounds %struct.cmsUcrBg, ptr %113, i32 0, i32 1
  %115 = load ptr, ptr %114, align 8
  %116 = getelementptr inbounds %struct._cms_curve_struct, ptr %115, i32 0, i32 6
  %117 = load ptr, ptr %116, align 8
  %118 = call i32 @_cmsReadUInt16Array(ptr noundef %111, i32 noundef %112, ptr noundef %117)
  %119 = icmp ne i32 %118, 0
  br i1 %119, label %121, label %120

120:                                              ; preds = %110
  br label %184

121:                                              ; preds = %110
  %122 = load i32, ptr %12, align 4
  %123 = zext i32 %122 to i64
  %124 = mul i64 %123, 2
  %125 = load i32, ptr %13, align 4
  %126 = sext i32 %125 to i64
  %127 = sub i64 %126, %124
  %128 = trunc i64 %127 to i32
  store i32 %128, ptr %13, align 4
  %129 = load i32, ptr %13, align 4
  %130 = icmp slt i32 %129, 0
  br i1 %130, label %134, label %131

131:                                              ; preds = %121
  %132 = load i32, ptr %13, align 4
  %133 = icmp sgt i32 %132, 32000
  br i1 %133, label %134, label %135

134:                                              ; preds = %131, %121
  br label %184

135:                                              ; preds = %131
  %136 = load ptr, ptr %6, align 8
  %137 = getelementptr inbounds %struct._cms_typehandler_struct, ptr %136, i32 0, i32 5
  %138 = load ptr, ptr %137, align 8
  %139 = call ptr @cmsMLUalloc(ptr noundef %138, i32 noundef 1)
  %140 = load ptr, ptr %10, align 8
  %141 = getelementptr inbounds %struct.cmsUcrBg, ptr %140, i32 0, i32 2
  store ptr %139, ptr %141, align 8
  %142 = load ptr, ptr %10, align 8
  %143 = getelementptr inbounds %struct.cmsUcrBg, ptr %142, i32 0, i32 2
  %144 = load ptr, ptr %143, align 8
  %145 = icmp eq ptr %144, null
  br i1 %145, label %146, label %147

146:                                              ; preds = %135
  br label %184

147:                                              ; preds = %135
  %148 = load ptr, ptr %6, align 8
  %149 = getelementptr inbounds %struct._cms_typehandler_struct, ptr %148, i32 0, i32 5
  %150 = load ptr, ptr %149, align 8
  %151 = load i32, ptr %13, align 4
  %152 = add nsw i32 %151, 1
  %153 = call ptr @_cmsMalloc(ptr noundef %150, i32 noundef %152)
  store ptr %153, ptr %14, align 8
  %154 = load ptr, ptr %7, align 8
  %155 = getelementptr inbounds %struct._cms_io_handler, ptr %154, i32 0, i32 5
  %156 = load ptr, ptr %155, align 8
  %157 = load ptr, ptr %7, align 8
  %158 = load ptr, ptr %14, align 8
  %159 = load i32, ptr %13, align 4
  %160 = call i32 %156(ptr noundef %157, ptr noundef %158, i32 noundef 1, i32 noundef %159)
  %161 = load i32, ptr %13, align 4
  %162 = icmp ne i32 %160, %161
  br i1 %162, label %163, label %168

163:                                              ; preds = %147
  %164 = load ptr, ptr %6, align 8
  %165 = getelementptr inbounds %struct._cms_typehandler_struct, ptr %164, i32 0, i32 5
  %166 = load ptr, ptr %165, align 8
  %167 = load ptr, ptr %14, align 8
  call void @_cmsFree(ptr noundef %166, ptr noundef %167)
  br label %184

168:                                              ; preds = %147
  %169 = load ptr, ptr %14, align 8
  %170 = load i32, ptr %13, align 4
  %171 = sext i32 %170 to i64
  %172 = getelementptr inbounds i8, ptr %169, i64 %171
  store i8 0, ptr %172, align 1
  %173 = load ptr, ptr %10, align 8
  %174 = getelementptr inbounds %struct.cmsUcrBg, ptr %173, i32 0, i32 2
  %175 = load ptr, ptr %174, align 8
  %176 = load ptr, ptr %14, align 8
  %177 = call i32 @cmsMLUsetASCII(ptr noundef %175, ptr noundef @.str, ptr noundef @.str, ptr noundef %176)
  %178 = load ptr, ptr %6, align 8
  %179 = getelementptr inbounds %struct._cms_typehandler_struct, ptr %178, i32 0, i32 5
  %180 = load ptr, ptr %179, align 8
  %181 = load ptr, ptr %14, align 8
  call void @_cmsFree(ptr noundef %180, ptr noundef %181)
  %182 = load ptr, ptr %8, align 8
  store i32 1, ptr %182, align 4
  %183 = load ptr, ptr %10, align 8
  store ptr %183, ptr %5, align 8
  br label %217

184:                                              ; preds = %163, %146, %134, %120, %109, %101, %84, %79, %68, %57, %49
  %185 = load ptr, ptr %10, align 8
  %186 = getelementptr inbounds %struct.cmsUcrBg, ptr %185, i32 0, i32 0
  %187 = load ptr, ptr %186, align 8
  %188 = icmp ne ptr %187, null
  br i1 %188, label %189, label %193

189:                                              ; preds = %184
  %190 = load ptr, ptr %10, align 8
  %191 = getelementptr inbounds %struct.cmsUcrBg, ptr %190, i32 0, i32 0
  %192 = load ptr, ptr %191, align 8
  call void @cmsFreeToneCurve(ptr noundef %192)
  br label %193

193:                                              ; preds = %189, %184
  %194 = load ptr, ptr %10, align 8
  %195 = getelementptr inbounds %struct.cmsUcrBg, ptr %194, i32 0, i32 1
  %196 = load ptr, ptr %195, align 8
  %197 = icmp ne ptr %196, null
  br i1 %197, label %198, label %202

198:                                              ; preds = %193
  %199 = load ptr, ptr %10, align 8
  %200 = getelementptr inbounds %struct.cmsUcrBg, ptr %199, i32 0, i32 1
  %201 = load ptr, ptr %200, align 8
  call void @cmsFreeToneCurve(ptr noundef %201)
  br label %202

202:                                              ; preds = %198, %193
  %203 = load ptr, ptr %10, align 8
  %204 = getelementptr inbounds %struct.cmsUcrBg, ptr %203, i32 0, i32 2
  %205 = load ptr, ptr %204, align 8
  %206 = icmp ne ptr %205, null
  br i1 %206, label %207, label %211

207:                                              ; preds = %202
  %208 = load ptr, ptr %10, align 8
  %209 = getelementptr inbounds %struct.cmsUcrBg, ptr %208, i32 0, i32 2
  %210 = load ptr, ptr %209, align 8
  call void @cmsMLUfree(ptr noundef %210)
  br label %211

211:                                              ; preds = %207, %202
  %212 = load ptr, ptr %6, align 8
  %213 = getelementptr inbounds %struct._cms_typehandler_struct, ptr %212, i32 0, i32 5
  %214 = load ptr, ptr %213, align 8
  %215 = load ptr, ptr %10, align 8
  call void @_cmsFree(ptr noundef %214, ptr noundef %215)
  %216 = load ptr, ptr %8, align 8
  store i32 0, ptr %216, align 4
  store ptr null, ptr %5, align 8
  br label %217

217:                                              ; preds = %211, %168, %32, %27, %23
  %218 = load ptr, ptr %5, align 8
  ret ptr %218
}